; Function Attrs: mustprogress null_pointer_is_valid sspstrong uwtable
define noundef ptr @_ZNK21ColoringRulesDelegate12createEditorEP7QWidgetRK20QStyleOptionViewItemRK11QModelIndex(ptr noundef align 8 dereferenceable_or_null(16) %0, ptr noundef %1, ptr noundef readnone align 8 captures(none) dereferenceable(208) %2, ptr noundef readonly align 8 captures(none) dereferenceable(24) %3) unnamed_addr #0 align 2 personality ptr @__gxx_personality_v0 {
  %5 = alloca { i64, i64 }, align 8
  %6 = alloca { i64, i64 }, align 8
  %7 = alloca %"class.QMetaObject::Connection", align 8
  %8 = getelementptr inbounds nuw i8, ptr %3, i64 4
  %9 = load i32, ptr %8, align 4
  switch i32 %9, label %22 [
    i32 0, label %10
    i32 1, label %18
  ]

10:                                               ; preds = %4
  %11 = tail call noalias noundef dereferenceable_or_null(192) ptr @_Znwm(i64 noundef 192) #7
  invoke void @_ZN14SyntaxLineEditC1EP7QWidget(ptr noundef align 8 dereferenceable_or_null(185) %11, ptr noundef %1)
          to label %12 unwind label %16

12:                                               ; preds = %10
  call void @llvm.lifetime.start.p0(i64 16, ptr nonnull %5)
  call void @llvm.lifetime.start.p0(i64 16, ptr nonnull %6)
  store i64 ptrtoint (ptr @_ZN9QLineEdit11textChangedERK7QString to i64), ptr %5, align 8, !noalias !6
  %.fca.1.gep14.i = getelementptr inbounds nuw i8, ptr %5, i64 8
  store i64 0, ptr %.fca.1.gep14.i, align 8, !noalias !6
  store i64 ptrtoint (ptr @_ZN21ColoringRulesDelegate15ruleNameChangedE7QString to i64), ptr %6, align 8, !noalias !6
  %.fca.1.gep.i = getelementptr inbounds nuw i8, ptr %6, i64 8
  store i64 0, ptr %.fca.1.gep.i, align 8, !noalias !6
  %13 = tail call noalias noundef dereferenceable_or_null(32) ptr @_Znwm(i64 noundef 32) #7, !noalias !6
  store i32 1, ptr %13, align 4, !noalias !6
  %14 = getelementptr inbounds nuw i8, ptr %13, i64 8
  store ptr @_ZN9QtPrivate11QSlotObjectIM21ColoringRulesDelegateFv7QStringENS_4ListIJRKS2_EEEvE4implEiPNS_15QSlotObjectBaseEP7QObjectPPvPb, ptr %14, align 8, !noalias !6
  %15 = getelementptr inbounds nuw i8, ptr %13, i64 16
  store i64 ptrtoint (ptr @_ZN21ColoringRulesDelegate15ruleNameChangedE7QString to i64), ptr %15, align 8, !noalias !6
  %.repack7.i.i = getelementptr inbounds nuw i8, ptr %13, i64 24
  store i64 0, ptr %.repack7.i.i, align 8, !noalias !6
  call void @_ZN7QObject11connectImplEPKS_PPvS1_S3_PN9QtPrivate15QSlotObjectBaseEN2Qt14ConnectionTypeEPKiPK11QMetaObject(ptr dead_on_unwind nonnull writable sret(%"class.QMetaObject::Connection") align 8 %7, ptr noundef %11, ptr noundef nonnull %5, ptr noundef %0, ptr noundef nonnull %6, ptr noundef %13, i32 noundef 0, ptr noundef null, ptr noundef nonnull @_ZN9QLineEdit16staticMetaObjectE)
  call void @llvm.lifetime.end.p0(i64 16, ptr nonnull %5)
  call void @llvm.lifetime.end.p0(i64 16, ptr nonnull %6)
  call void @_ZN11QMetaObject10ConnectionD1Ev(ptr noundef nonnull align 8 dereferenceable_or_null(8) %7) #8
  br label %22

16:                                               ; preds = %10
  %17 = landingpad { ptr, i32 }
          cleanup
  tail call void @_ZdlPvm(ptr noundef %11, i64 noundef 192) #9
  br label %23

18:                                               ; preds = %4
  %19 = tail call noalias noundef dereferenceable_or_null(376) ptr @_Znwm(i64 noundef 376) #7
  invoke void @_ZN17DisplayFilterEditC1EP7QWidget21DisplayFilterEditType(ptr noundef align 8 dereferenceable_or_null(376) %19, ptr noundef %1, i32 noundef 1)
          to label %22 unwind label %20

20:                                               ; preds = %18
  %21 = landingpad { ptr, i32 }
          cleanup
  tail call void @_ZdlPvm(ptr noundef %19, i64 noundef 376) #9
  br label %23

22:                                               ; preds = %4, %18, %12
  %.0 = phi ptr [ %11, %12 ], [ %19, %18 ], [ null, %4 ]
  ret ptr %.0

23:                                               ; preds = %20, %16
  %.pn = phi { ptr, i32 } [ %21, %20 ], [ %17, %16 ]
  resume { ptr, i32 } %.pn
}